         U __aeabi_atexit@CXXABI_ARM_1.3.3
         U __aeabi_unwind_cpp_pr0@GCC_3.5
000071bc r all_implied_fbits
00007ae0 r all_implied_fbits
         U __assert_fail@GLIBC_2.4
0000564c t call_weak_fn
000181d0 b completed.0
         U __cxa_bad_typeid@CXXABI_1.3
         U __cxa_begin_catch@CXXABI_1.3
         U __cxa_end_catch@CXXABI_1.3
         U __cxa_end_cleanup@CXXABI_1.3
         w __cxa_finalize@GLIBC_2.4
         U __cxa_guard_abort@CXXABI_1.3
         U __cxa_guard_acquire@CXXABI_1.3
         U __cxa_guard_release@CXXABI_1.3
         U __cxa_rethrow@CXXABI_1.3
00005670 t deregister_tm_clones
00005704 t __do_global_dtors_aux
00017eec d __do_global_dtors_aux_fini_array_entry
000180e4 d __dso_handle
00017ef0 a _DYNAMIC
000071b4 t _fini
0000576c t frame_dummy
00017ee4 d __frame_dummy_init_array_entry
00007e30 r __FRAME_END__
00018000 a _GLOBAL_OFFSET_TABLE_
00005588 t _GLOBAL__sub_I_PyInit_gpio
         w __gmon_start__
         U __gxx_personality_v0@CXXABI_1.3
00005310 t _init
         w _ITM_deregisterTMCloneTable
         w _ITM_registerTMCloneTable
         w __pthread_key_create
         U _Py_Dealloc
00005e6c T PyInit_gpio
         U PyLong_FromLong
         U PyLong_Type
         U _Py_NoneStruct
000056b4 t register_tm_clones
         U strcmp@GLIBC_2.4
000181d0 d __TMC_END__
00005770 T _Z16init_module_gpiov
         U _ZdlPvj@CXXABI_1.3.9
00018208 u _ZGVN5boost6python9converter6detail15registered_baseIRVK4GPIOE10convertersE
000181ec u _ZGVN5boost6python9converter6detail15registered_baseIRVKiE10convertersE
000181d4 b _ZGVZ11PyInit_gpioE9moduledef
000181fc u _ZGVZN5boost6python6detail15signature_arityILj1EE4implINS_3mpl7vector2IiR4GPIOEEE8elementsEvE6result
000181f4 u _ZGVZN5boost6python6detail15signature_arityILj1EE4implINS_3mpl7vector2IvR4GPIOEEE8elementsEvE6result
00018204 u _ZGVZN5boost6python6detail15signature_arityILj2EE4implINS_3mpl7vector3IvP7_objectiEEE8elementsEvE6result
00018200 u _ZGVZN5boost6python6detail15signature_arityILj2EE4implINS_3mpl7vector3IvR4GPIOiEEE8elementsEvE6result
000181f8 u _ZGVZN5boost6python6detail7get_retINS0_21default_call_policiesENS_3mpl7vector2IiR4GPIOEEEEPKNS1_17signature_elementEvE3ret
         U _ZN4GPIOC1Ei
         U _ZN4GPIOD1Ev
00005ee4 W _ZN5boost6detail15sp_counted_base7destroyEv
00006040 W _ZN5boost6detail18sp_counted_impl_pdIPvNS_6python9converter18shared_ptr_deleterEE11get_deleterERKSt9type_info
0000606c W _ZN5boost6detail18sp_counted_impl_pdIPvNS_6python9converter18shared_ptr_deleterEE17get_local_deleterERKSt9type_info
00005f14 W _ZN5boost6detail18sp_counted_impl_pdIPvNS_6python9converter18shared_ptr_deleterEE19get_untyped_deleterEv
00006010 W _ZN5boost6detail18sp_counted_impl_pdIPvNS_6python9converter18shared_ptr_deleterEE7disposeEv
00005f90 W _ZN5boost6detail18sp_counted_impl_pdIPvNS_6python9converter18shared_ptr_deleterEED0Ev
00005f50 W _ZN5boost6detail18sp_counted_impl_pdIPvNS_6python9converter18shared_ptr_deleterEED1Ev
00005f50 W _ZN5boost6detail18sp_counted_impl_pdIPvNS_6python9converter18shared_ptr_deleterEED2Ev
         U _ZN5boost6python15instance_holder10deallocateEP7_objectPv
         U _ZN5boost6python15instance_holder7installEP7_object
         U _ZN5boost6python15instance_holder8allocateEP7_objectjj
         U _ZN5boost6python15instance_holderC2Ev
         U _ZN5boost6python15instance_holderD2Ev
00005ef8 W _ZN5boost6python19to_python_converterI4GPIONS0_7objects18class_cref_wrapperIS2_NS3_13make_instanceIS2_NS3_12value_holderIS2_EEEEEELb1EE15get_pytype_implEv
         U _ZN5boost6python23throw_error_already_setEv
00006be8 W _ZN5boost6python3api11object_baseD1Ev
00006be8 W _ZN5boost6python3api11object_baseD2Ev
00006b88 W _ZN5boost6python3api9slice_nilD1Ev
00006b88 W _ZN5boost6python3api9slice_nilD2Ev
000181d8 b _ZN5boost6python3apiL1_E
         U _ZN5boost6python6detail11init_moduleER11PyModuleDefPFvvE
         U _ZN5boost6python6detail12gcc_demangleEPKc
00005ef0 W _ZN5boost6python6detail21converter_target_typeIiE10get_pytypeEv
00005f34 W _ZN5boost6python6detail21converter_target_typeINS0_15to_python_valueIRKiEEE10get_pytypeEv
         U _ZN5boost6python7objects10class_base17set_instance_sizeEj
         U _ZN5boost6python7objects10class_baseC2EPKcjPKNS0_9type_infoES4_
000061d4 W _ZN5boost6python7objects11make_holderILi1EE5applyINS1_12value_holderI4GPIOEENS_3mpl7vector1IiEEE7executeEP7_objecti
00006128 W _ZN5boost6python7objects12value_holderI4GPIOE5holdsENS0_9type_infoEb
000061a0 W _ZN5boost6python7objects12value_holderI4GPIOED0Ev
00006178 W _ZN5boost6python7objects12value_holderI4GPIOED1Ev
00006178 W _ZN5boost6python7objects12value_holderI4GPIOED2Ev
         U _ZN5boost6python7objects15function_objectERKNS1_11py_functionERKSt4pairIPKNS0_6detail7keywordES9_E
         U _ZN5boost6python7objects16add_to_namespaceERKNS0_3api6objectEPKcS5_S7_
         U _ZN5boost6python7objects16find_static_typeEPvNS0_9type_infoES3_
         U _ZN5boost6python7objects17copy_class_objectERKNS0_9type_infoES4_
         U _ZN5boost6python7objects21py_function_impl_baseD2Ev
00006a30 W _ZN5boost6python7objects23caller_py_function_implINS0_6detail6callerIM4GPIOFivENS0_21default_call_policiesENS_3mpl7vector2IiRS5_EEEEEclEP7_objectSG_
00006710 W _ZN5boost6python7objects23caller_py_function_implINS0_6detail6callerIM4GPIOFivENS0_21default_call_policiesENS_3mpl7vector2IiRS5_EEEEED0Ev
000066f0 W _ZN5boost6python7objects23caller_py_function_implINS0_6detail6callerIM4GPIOFivENS0_21default_call_policiesENS_3mpl7vector2IiRS5_EEEEED1Ev
000066f0 W _ZN5boost6python7objects23caller_py_function_implINS0_6detail6callerIM4GPIOFivENS0_21default_call_policiesENS_3mpl7vector2IiRS5_EEEEED2Ev
00006788 W _ZN5boost6python7objects23caller_py_function_implINS0_6detail6callerIM4GPIOFviENS0_21default_call_policiesENS_3mpl7vector3IvRS5_iEEEEEclEP7_objectSG_
000066c4 W _ZN5boost6python7objects23caller_py_function_implINS0_6detail6callerIM4GPIOFviENS0_21default_call_policiesENS_3mpl7vector3IvRS5_iEEEEED0Ev
000066a4 W _ZN5boost6python7objects23caller_py_function_implINS0_6detail6callerIM4GPIOFviENS0_21default_call_policiesENS_3mpl7vector3IvRS5_iEEEEED1Ev
000066a4 W _ZN5boost6python7objects23caller_py_function_implINS0_6detail6callerIM4GPIOFviENS0_21default_call_policiesENS_3mpl7vector3IvRS5_iEEEEED2Ev
000069a4 W _ZN5boost6python7objects23caller_py_function_implINS0_6detail6callerIM4GPIOFvvENS0_21default_call_policiesENS_3mpl7vector2IvRS5_EEEEEclEP7_objectSG_
0000675c W _ZN5boost6python7objects23caller_py_function_implINS0_6detail6callerIM4GPIOFvvENS0_21default_call_policiesENS_3mpl7vector2IvRS5_EEEEED0Ev
0000673c W _ZN5boost6python7objects23caller_py_function_implINS0_6detail6callerIM4GPIOFvvENS0_21default_call_policiesENS_3mpl7vector2IvRS5_EEEEED1Ev
0000673c W _ZN5boost6python7objects23caller_py_function_implINS0_6detail6callerIM4GPIOFvvENS0_21default_call_policiesENS_3mpl7vector2IvRS5_EEEEED2Ev
00006aa4 W _ZN5boost6python7objects23caller_py_function_implINS0_6detail6callerIPFvP7_objectiENS0_21default_call_policiesENS_3mpl7vector3IvS6_iEEEEEclES6_S6_
00006678 W _ZN5boost6python7objects23caller_py_function_implINS0_6detail6callerIPFvP7_objectiENS0_21default_call_policiesENS_3mpl7vector3IvS6_iEEEEED0Ev
00006658 W _ZN5boost6python7objects23caller_py_function_implINS0_6detail6callerIPFvP7_objectiENS0_21default_call_policiesENS_3mpl7vector3IvS6_iEEEEED1Ev
00006658 W _ZN5boost6python7objects23caller_py_function_implINS0_6detail6callerIPFvP7_objectiENS0_21default_call_policiesENS_3mpl7vector3IvS6_iEEEEED2Ev
         U _ZN5boost6python7objects23register_dynamic_id_auxENS0_9type_infoEPFSt4pairIPvS2_ES4_E
000060f4 W _ZN5boost6python7objects24polymorphic_id_generatorI4GPIOE7executeEPv
00006c48 W _ZN5boost6python7xdecrefI7_objectEEvPT_
         U _ZN5boost6python9converter18shared_ptr_deleterC1ENS0_6handleI7_objectEE
         U _ZN5boost6python9converter18shared_ptr_deleterclEPKv
         U _ZN5boost6python9converter18shared_ptr_deleterD1Ev
000068d4 W _ZN5boost6python9converter21as_to_python_functionI4GPIONS0_7objects18class_cref_wrapperIS3_NS4_13make_instanceIS3_NS4_12value_holderIS3_EEEEEEE7convertEPKv
         U _ZN5boost6python9converter22get_lvalue_from_pythonEP7_objectRKNS1_12registrationE
000060b4 W _ZN5boost6python9converter22shared_ptr_from_pythonI4GPIONS_10shared_ptrEE11convertibleEP7_object
00006c94 W _ZN5boost6python9converter22shared_ptr_from_pythonI4GPIONS_10shared_ptrEE9constructEP7_objectPNS1_30rvalue_from_python_stage1_dataE
000060d4 W _ZN5boost6python9converter22shared_ptr_from_pythonI4GPIOSt10shared_ptrE11convertibleEP7_object
00006ebc W _ZN5boost6python9converter22shared_ptr_from_pythonI4GPIOSt10shared_ptrE9constructEP7_objectPNS1_30rvalue_from_python_stage1_dataE
000065d8 W _ZN5boost6python9converter23expected_pytype_for_argIiE10get_pytypeEv
00006638 W _ZN5boost6python9converter23expected_pytype_for_argIP7_objectE10get_pytypeEv
00006608 W _ZN5boost6python9converter23expected_pytype_for_argIR4GPIOE10get_pytypeEv
000065a8 W _ZN5boost6python9converter23expected_pytype_for_argIvE10get_pytypeEv
         U _ZN5boost6python9converter25rvalue_from_python_stage1EP7_objectRKNS1_12registrationE
00005f40 W _ZN5boost6python9converter32expected_from_python_type_directI4GPIOE10get_pytypeEv
0001820c u _ZN5boost6python9converter6detail15registered_baseIRVK4GPIOE10convertersE
000181f0 u _ZN5boost6python9converter6detail15registered_baseIRVKiE10convertersE
         U _ZN5boost6python9converter8registry5queryENS0_9type_infoE
         U _ZN5boost6python9converter8registry6insertEPFP7_objectPKvENS0_9type_infoEPFPK11_typeobjectvE
         U _ZN5boost6python9converter8registry6insertEPFPvP7_objectEPFvS5_PNS1_30rvalue_from_python_stage1_dataEENS0_9type_infoEPFPK11_typeobjectvE
         U _ZN5boost6python9converter8registry6lookupENS0_9type_infoE
         U _ZNK5boost6python7objects21py_function_impl_base9max_arityEv
00005f24 W _ZNK5boost6python7objects23caller_py_function_implINS0_6detail6callerIM4GPIOFivENS0_21default_call_policiesENS_3mpl7vector2IiRS5_EEEEE9min_arityEv
000063e4 W _ZNK5boost6python7objects23caller_py_function_implINS0_6detail6callerIM4GPIOFivENS0_21default_call_policiesENS_3mpl7vector2IiRS5_EEEEE9signatureEv
00005f1c W _ZNK5boost6python7objects23caller_py_function_implINS0_6detail6callerIM4GPIOFviENS0_21default_call_policiesENS_3mpl7vector3IvRS5_iEEEEE9min_arityEv
00006310 W _ZNK5boost6python7objects23caller_py_function_implINS0_6detail6callerIM4GPIOFviENS0_21default_call_policiesENS_3mpl7vector3IvRS5_iEEEEE9signatureEv
00005f2c W _ZNK5boost6python7objects23caller_py_function_implINS0_6detail6callerIM4GPIOFvvENS0_21default_call_policiesENS_3mpl7vector2IvRS5_EEEEE9min_arityEv
000064f4 W _ZNK5boost6python7objects23caller_py_function_implINS0_6detail6callerIM4GPIOFvvENS0_21default_call_policiesENS_3mpl7vector2IvRS5_EEEEE9signatureEv
00005f0c W _ZNK5boost6python7objects23caller_py_function_implINS0_6detail6callerIPFvP7_objectiENS0_21default_call_policiesENS_3mpl7vector3IvS6_iEEEEE9min_arityEv
0000624c W _ZNK5boost6python7objects23caller_py_function_implINS0_6detail6callerIPFvP7_objectiENS0_21default_call_policiesENS_3mpl7vector3IvS6_iEEEEE9signatureEv
         U _ZNK5boost6python9converter12registration16get_class_objectEv
         U _ZNK5boost6python9converter12registration25expected_from_python_typeEv
         U _ZNKSt9type_infoeqERKS_@GLIBCXX_3.4
00005fe8 W _ZNSt19_Sp_counted_deleterIPvN5boost6python9converter18shared_ptr_deleterESaIvELN9__gnu_cxx12_Lock_policyE1EE10_M_destroyEv
00006028 W _ZNSt19_Sp_counted_deleterIPvN5boost6python9converter18shared_ptr_deleterESaIvELN9__gnu_cxx12_Lock_policyE1EE10_M_disposeEv
00006088 W _ZNSt19_Sp_counted_deleterIPvN5boost6python9converter18shared_ptr_deleterESaIvELN9__gnu_cxx12_Lock_policyE1EE14_M_get_deleterERKSt9type_info
00005fbc W _ZNSt19_Sp_counted_deleterIPvN5boost6python9converter18shared_ptr_deleterESaIvELN9__gnu_cxx12_Lock_policyE1EED0Ev
00005f70 W _ZNSt19_Sp_counted_deleterIPvN5boost6python9converter18shared_ptr_deleterESaIvELN9__gnu_cxx12_Lock_policyE1EED1Ev
00005f70 W _ZNSt19_Sp_counted_deleterIPvN5boost6python9converter18shared_ptr_deleterESaIvELN9__gnu_cxx12_Lock_policyE1EED2Ev
         U _Znwj@GLIBCXX_3.4
         U _ZTI4GPIO
         U _ZTIi@CXXABI_1.3
00007654 V _ZTIN5boost6detail15sp_counted_baseE
000078dc V _ZTIN5boost6detail18sp_counted_impl_pdIPvNS_6python9converter18shared_ptr_deleterEEE
         U _ZTIN5boost6python15instance_holderE
0000768c V _ZTIN5boost6python7objects12value_holderI4GPIOEE
         U _ZTIN5boost6python7objects21py_function_impl_baseE
000077b4 V _ZTIN5boost6python7objects23caller_py_function_implINS0_6detail6callerIM4GPIOFivENS0_21default_call_policiesENS_3mpl7vector2IiRS5_EEEEEE
00007848 V _ZTIN5boost6python7objects23caller_py_function_implINS0_6detail6callerIM4GPIOFviENS0_21default_call_policiesENS_3mpl7vector3IvRS5_iEEEEEE
00007720 V _ZTIN5boost6python7objects23caller_py_function_implINS0_6detail6callerIM4GPIOFvvENS0_21default_call_policiesENS_3mpl7vector2IvRS5_EEEEEE
000079ec V _ZTIN5boost6python7objects23caller_py_function_implINS0_6detail6callerIPFvP7_objectiENS0_21default_call_policiesENS_3mpl7vector3IvS6_iEEEEEE
000075a0 V _ZTIN5boost6python9converter18shared_ptr_deleterE
0000752c V _ZTIN9__gnu_cxx7__mutexE
         U _ZTIPv@CXXABI_1.3
00007564 V _ZTISt11_Mutex_baseILN9__gnu_cxx12_Lock_policyE1EE
00007618 V _ZTISt16_Sp_counted_baseILN9__gnu_cxx12_Lock_policyE1EE
00007954 V _ZTISt19_Sp_counted_deleterIPvN5boost6python9converter18shared_ptr_deleterESaIvELN9__gnu_cxx12_Lock_policyE1EE
         U _ZTIv@CXXABI_1.3
000075b4 V _ZTS7_object
00007854 V _ZTSN5boost10shared_ptrI4GPIOEE
00007630 V _ZTSN5boost6detail15sp_counted_baseE
00007888 V _ZTSN5boost6detail18sp_counted_impl_pdIPvNS_6python9converter18shared_ptr_deleterEEE
0000765c V _ZTSN5boost6python7objects12value_holderI4GPIOEE
0000772c V _ZTSN5boost6python7objects23caller_py_function_implINS0_6detail6callerIM4GPIOFivENS0_21default_call_policiesENS_3mpl7vector2IiRS5_EEEEEE
000077c0 V _ZTSN5boost6python7objects23caller_py_function_implINS0_6detail6callerIM4GPIOFviENS0_21default_call_policiesENS_3mpl7vector3IvRS5_iEEEEEE
00007698 V _ZTSN5boost6python7objects23caller_py_function_implINS0_6detail6callerIM4GPIOFvvENS0_21default_call_policiesENS_3mpl7vector2IvRS5_EEEEEE
00007960 V _ZTSN5boost6python7objects23caller_py_function_implINS0_6detail6callerIPFvP7_objectiENS0_21default_call_policiesENS_3mpl7vector3IvS6_iEEEEEE
00007570 V _ZTSN5boost6python9converter18shared_ptr_deleterE
00007514 V _ZTSN9__gnu_cxx7__mutexE
000075a8 V _ZTSP7_object
00007870 V _ZTSSt10shared_ptrI4GPIOE
00007534 V _ZTSSt11_Mutex_baseILN9__gnu_cxx12_Lock_policyE1EE
000075e4 V _ZTSSt16_Sp_counted_baseILN9__gnu_cxx12_Lock_policyE1EE
000078e8 V _ZTSSt19_Sp_counted_deleterIPvN5boost6python9converter18shared_ptr_deleterESaIvELN9__gnu_cxx12_Lock_policyE1EE
         U _ZTV4GPIO
         U _ZTVN10__cxxabiv117__class_type_infoE@CXXABI_1.3
         U _ZTVN10__cxxabiv120__si_class_type_infoE@CXXABI_1.3
         U _ZTVN10__cxxabiv121__vmi_class_type_infoE@CXXABI_1.3
00007a6c V _ZTVN5boost6detail18sp_counted_impl_pdIPvNS_6python9converter18shared_ptr_deleterEEE
000079f8 V _ZTVN5boost6python7objects12value_holderI4GPIOEE
00007a2c V _ZTVN5boost6python7objects23caller_py_function_implINS0_6detail6callerIM4GPIOFivENS0_21default_call_policiesENS_3mpl7vector2IiRS5_EEEEEE
00007a4c V _ZTVN5boost6python7objects23caller_py_function_implINS0_6detail6callerIM4GPIOFviENS0_21default_call_policiesENS_3mpl7vector3IvRS5_iEEEEEE
00007a0c V _ZTVN5boost6python7objects23caller_py_function_implINS0_6detail6callerIM4GPIOFvvENS0_21default_call_policiesENS_3mpl7vector2IvRS5_EEEEEE
00007aac V _ZTVN5boost6python7objects23caller_py_function_implINS0_6detail6callerIPFvP7_objectiENS0_21default_call_policiesENS_3mpl7vector3IvS6_iEEEEEE
00007a90 V _ZTVSt19_Sp_counted_deleterIPvN5boost6python9converter18shared_ptr_deleterESaIvELN9__gnu_cxx12_Lock_policyE1EE
00007acc r _ZZ11PyInit_gpioE14initial_m_base
000181dc b _ZZ11PyInit_gpioE15initial_methods
000180e8 d _ZZ11PyInit_gpioE9moduledef
0001814c u _ZZN5boost6python6detail15signature_arityILj1EE4implINS_3mpl7vector2IiR4GPIOEEE8elementsEvE6result
0001811c u _ZZN5boost6python6detail15signature_arityILj1EE4implINS_3mpl7vector2IvR4GPIOEEE8elementsEvE6result
000181a0 u _ZZN5boost6python6detail15signature_arityILj2EE4implINS_3mpl7vector3IvP7_objectiEEE8elementsEvE6result
00018170 u _ZZN5boost6python6detail15signature_arityILj2EE4implINS_3mpl7vector3IvR4GPIOiEEE8elementsEvE6result
00018140 u _ZZN5boost6python6detail7get_retINS0_21default_call_policiesENS_3mpl7vector2IiR4GPIOEEEEPKNS1_17signature_elementEvE3ret
000075c0 u _ZZN5boost6python6detail7get_retINS0_21default_call_policiesENS_3mpl7vector2IvR4GPIOEEEEPKNS1_17signature_elementEvE3ret
000075d8 u _ZZN5boost6python6detail7get_retINS0_21default_call_policiesENS_3mpl7vector3IvP7_objectiEEEEPKNS1_17signature_elementEvE3ret
000075cc u _ZZN5boost6python6detail7get_retINS0_21default_call_policiesENS_3mpl7vector3IvR4GPIOiEEEEPKNS1_17signature_elementEvE3ret
